; Function Attrs: nounwind uwtable
define internal void @gtk2_paint_vline(i32 noundef %0, i32 noundef %1, ptr noundef %2, i32 noundef %3, i32 noundef %4, i32 %5, i32 noundef %6) #0 {
  %8 = tail call fastcc ptr @gtk2_get_widget(i32 noundef %0)
  store ptr %8, ptr @gtk2_widget, align 8
  %9 = load ptr, ptr @fp_gtk_paint_vline, align 8
  %10 = getelementptr inbounds i8, ptr %8, i64 48
  %11 = load ptr, ptr %10, align 8
  %12 = load ptr, ptr @gtk2_white_pixmap, align 8
  %13 = add nsw i32 %6, %4
  tail call void %9(ptr noundef %11, ptr noundef %12, i32 noundef %1, ptr noundef null, ptr noundef %8, ptr noundef %2, i32 noundef %4, i32 noundef %13, i32 noundef %3) #18
  %14 = load ptr, ptr @fp_gtk_paint_vline, align 8
  %15 = load ptr, ptr @gtk2_widget, align 8
  %16 = getelementptr inbounds i8, ptr %15, i64 48
  %17 = load ptr, ptr %16, align 8
  %18 = load ptr, ptr @gtk2_black_pixmap, align 8
  tail call void %14(ptr noundef %17, ptr noundef %18, i32 noundef %1, ptr noundef null, ptr noundef %15, ptr noundef %2, i32 noundef %4, i32 noundef %13, i32 noundef %3) #18
  ret void
}